target datalayout = "e-m:e-p270:32:32-p271:32:32-p272:64:64-i64:64-i128:128-f80:128-n8:16:32:64-S128"
target triple = "x86_64-pc-linux-gnu"

%"struct.llvm::RegisterBankInfo::PartialMapping" = type { i32, i32, ptr }

; Function Attrs: mustprogress nounwind uwtable
define dso_local noundef zeroext i1 @_ZN4llvm26AArch64GenRegisterBankInfo15checkPartialMapEjjjRKNS_12RegisterBankE(i32 noundef %0, i32 noundef %1, i32 noundef %2, ptr noundef nonnull align 8 dereferenceable(24) %3) #0 align 2 {
  %5 = alloca i32, align 4
  %6 = alloca i32, align 4
  %7 = alloca i32, align 4
  %8 = alloca ptr, align 8
  %9 = alloca ptr, align 8
  store i32 %0, ptr %5, align 4
  store i32 %1, ptr %6, align 4
  store i32 %2, ptr %7, align 4
  store ptr %3, ptr %8, align 8
  %10 = load i32, ptr %5, align 4
  %11 = sub i32 %10, 1
  %12 = zext i32 %11 to i64
  %13 = getelementptr inbounds [9 x %"struct.llvm::RegisterBankInfo::PartialMapping"], ptr @_ZN4llvm26AArch64GenRegisterBankInfo12PartMappingsE, i64 0, i64 %12
  store ptr %13, ptr %9, align 8
  %14 = load ptr, ptr %9, align 8
  %15 = getelementptr inbounds nuw %"struct.llvm::RegisterBankInfo::PartialMapping", ptr %14, i32 0, i32 0
  %16 = load i32, ptr %15, align 8
  %17 = load i32, ptr %6, align 4
  %18 = icmp eq i32 %16, %17
  br i1 %18, label %19, label %31

19:                                               ; preds = %4
  %20 = load ptr, ptr %9, align 8
  %21 = getelementptr inbounds nuw %"struct.llvm::RegisterBankInfo::PartialMapping", ptr %20, i32 0, i32 1
  %22 = load i32, ptr %21, align 4
  %23 = load i32, ptr %7, align 4
  %24 = icmp eq i32 %22, %23
  br i1 %24, label %25, label %31

25:                                               ; preds = %19
  %26 = load ptr, ptr %9, align 8
  %27 = getelementptr inbounds nuw %"struct.llvm::RegisterBankInfo::PartialMapping", ptr %26, i32 0, i32 2
  %28 = load ptr, ptr %27, align 8
  %29 = load ptr, ptr %8, align 8
  %30 = icmp eq ptr %28, %29
  br label %31

31:                                               ; preds = %25, %19, %4
  %32 = phi i1 [ false, %19 ], [ false, %4 ], [ %30, %25 ]
  ret i1 %32
}