; Function Attrs: mustprogress nofree norecurse nosync nounwind willreturn memory(none) uwtable
define dso_local noundef zeroext i1 @_ZN4llvm26AArch64GenRegisterBankInfo15checkPartialMapEjjjRKNS_12RegisterBankE(i32 noundef %0, i32 noundef %1, i32 noundef %2, ptr noundef nonnull readnone align 8 dereferenceable(24) %3) local_unnamed_addr #3 align 2 {
  %5 = add i32 %0, -1
  %6 = zext i32 %5 to i64
  %7 = getelementptr inbounds [9 x %"struct.llvm::RegisterBankInfo::PartialMapping"], ptr @_ZN4llvm26AArch64GenRegisterBankInfo12PartMappingsE, i64 0, i64 %6
  %8 = icmp eq i32 %1, 0
  br i1 %8, label %9, label %17

9:                                                ; preds = %4
  %10 = getelementptr inbounds nuw i8, ptr %7, i64 4
  %11 = load i32, ptr %10, align 4
  %12 = icmp eq i32 %11, %2
  br i1 %12, label %13, label %17

13:                                               ; preds = %9
  %14 = getelementptr inbounds nuw i8, ptr %7, i64 8
  %15 = load ptr, ptr %14, align 8
  %16 = icmp eq ptr %15, %3
  br label %17

17:                                               ; preds = %13, %9, %4
  %18 = phi i1 [ false, %9 ], [ false, %4 ], [ %16, %13 ]
  ret i1 %18
}